target datalayout = "e-m:e-p270:32:32-p271:32:32-p272:64:64-i64:64-i128:128-f80:128-n8:16:32:64-S128"
target triple = "x86_64-pc-linux-gnu"

%struct.PHP_MD5_CTX = type { i32, i32, i32, i32, i32, i32, [64 x i8], [16 x i32] }

; Function Attrs: nounwind uwtable
define void @PHP_MD5Update(ptr noundef %0, ptr noundef %1, i64 noundef %2) #0 {
  %4 = alloca ptr, align 8
  %5 = alloca ptr, align 8
  %6 = alloca i64, align 8
  %7 = alloca i32, align 4
  %8 = alloca i32, align 4
  %9 = alloca i32, align 4
  store ptr %0, ptr %4, align 8
  store ptr %1, ptr %5, align 8
  store i64 %2, ptr %6, align 8
  %10 = load ptr, ptr %4, align 8
  %11 = getelementptr inbounds %struct.PHP_MD5_CTX, ptr %10, i32 0, i32 0
  %12 = load i32, ptr %11, align 4
  store i32 %12, ptr %7, align 4
  %13 = load i32, ptr %7, align 4
  %14 = zext i32 %13 to i64
  %15 = load i64, ptr %6, align 8
  %16 = add i64 %14, %15
  %17 = and i64 %16, 536870911
  %18 = trunc i64 %17 to i32
  %19 = load ptr, ptr %4, align 8
  %20 = getelementptr inbounds %struct.PHP_MD5_CTX, ptr %19, i32 0, i32 0
  store i32 %18, ptr %20, align 4
  %21 = load i32, ptr %7, align 4
  %22 = icmp ult i32 %18, %21
  br i1 %22, label %23, label %28

23:                                               ; preds = %3
  %24 = load ptr, ptr %4, align 8
  %25 = getelementptr inbounds %struct.PHP_MD5_CTX, ptr %24, i32 0, i32 1
  %26 = load i32, ptr %25, align 4
  %27 = add i32 %26, 1
  store i32 %27, ptr %25, align 4
  br label %28

28:                                               ; preds = %23, %3
  %29 = load i64, ptr %6, align 8
  %30 = lshr i64 %29, 29
  %31 = load ptr, ptr %4, align 8
  %32 = getelementptr inbounds %struct.PHP_MD5_CTX, ptr %31, i32 0, i32 1
  %33 = load i32, ptr %32, align 4
  %34 = zext i32 %33 to i64
  %35 = add i64 %34, %30
  %36 = trunc i64 %35 to i32
  store i32 %36, ptr %32, align 4
  %37 = load i32, ptr %7, align 4
  %38 = and i32 %37, 63
  store i32 %38, ptr %8, align 4
  %39 = load i32, ptr %8, align 4
  %40 = icmp ne i32 %39, 0
  br i1 %40, label %41, label %78

41:                                               ; preds = %28
  %42 = load i32, ptr %8, align 4
  %43 = sub i32 64, %42
  store i32 %43, ptr %9, align 4
  %44 = load i64, ptr %6, align 8
  %45 = load i32, ptr %9, align 4
  %46 = zext i32 %45 to i64
  %47 = icmp ult i64 %44, %46
  br i1 %47, label %48, label %56

48:                                               ; preds = %41
  %49 = load ptr, ptr %4, align 8
  %50 = getelementptr inbounds %struct.PHP_MD5_CTX, ptr %49, i32 0, i32 6
  %51 = load i32, ptr %8, align 4
  %52 = zext i32 %51 to i64
  %53 = getelementptr inbounds [64 x i8], ptr %50, i64 0, i64 %52
  %54 = load ptr, ptr %5, align 8
  %55 = load i64, ptr %6, align 8
  call void @llvm.memcpy.p0.p0.i64(ptr align 1 %53, ptr align 1 %54, i64 %55, i1 false)
  br label %95

56:                                               ; preds = %41
  %57 = load ptr, ptr %4, align 8
  %58 = getelementptr inbounds %struct.PHP_MD5_CTX, ptr %57, i32 0, i32 6
  %59 = load i32, ptr %8, align 4
  %60 = zext i32 %59 to i64
  %61 = getelementptr inbounds [64 x i8], ptr %58, i64 0, i64 %60
  %62 = load ptr, ptr %5, align 8
  %63 = load i32, ptr %9, align 4
  %64 = zext i32 %63 to i64
  call void @llvm.memcpy.p0.p0.i64(ptr align 1 %61, ptr align 1 %62, i64 %64, i1 false)
  %65 = load ptr, ptr %5, align 8
  %66 = load i32, ptr %9, align 4
  %67 = zext i32 %66 to i64
  %68 = getelementptr inbounds i8, ptr %65, i64 %67
  store ptr %68, ptr %5, align 8
  %69 = load i32, ptr %9, align 4
  %70 = zext i32 %69 to i64
  %71 = load i64, ptr %6, align 8
  %72 = sub i64 %71, %70
  store i64 %72, ptr %6, align 8
  %73 = load ptr, ptr %4, align 8
  %74 = load ptr, ptr %4, align 8
  %75 = getelementptr inbounds %struct.PHP_MD5_CTX, ptr %74, i32 0, i32 6
  %76 = getelementptr inbounds [64 x i8], ptr %75, i64 0, i64 0
  %77 = call ptr @body(ptr noundef %73, ptr noundef %76, i64 noundef 64)
  br label %78

78:                                               ; preds = %56, %28
  %79 = load i64, ptr %6, align 8
  %80 = icmp uge i64 %79, 64
  br i1 %80, label %81, label %89

81:                                               ; preds = %78
  %82 = load ptr, ptr %4, align 8
  %83 = load ptr, ptr %5, align 8
  %84 = load i64, ptr %6, align 8
  %85 = and i64 %84, -64
  %86 = call ptr @body(ptr noundef %82, ptr noundef %83, i64 noundef %85)
  store ptr %86, ptr %5, align 8
  %87 = load i64, ptr %6, align 8
  %88 = and i64 %87, 63
  store i64 %88, ptr %6, align 8
  br label %89

89:                                               ; preds = %81, %78
  %90 = load ptr, ptr %4, align 8
  %91 = getelementptr inbounds %struct.PHP_MD5_CTX, ptr %90, i32 0, i32 6
  %92 = getelementptr inbounds [64 x i8], ptr %91, i64 0, i64 0
  %93 = load ptr, ptr %5, align 8
  %94 = load i64, ptr %6, align 8
  call void @llvm.memcpy.p0.p0.i64(ptr align 4 %92, ptr align 1 %93, i64 %94, i1 false)
  br label %95

95:                                               ; preds = %89, %48
  ret void
}