; Function Attrs: nofree norecurse nosync nounwind memory(readwrite, inaccessiblemem: none) uwtable
define void @PHP_MD5Update(ptr noundef %0, ptr noundef %1, i64 noundef %2) local_unnamed_addr #4 {
._crit_edge:
  %3 = load i32, ptr %0, align 4
  %4 = trunc i64 %2 to i32
  %5 = add i32 %3, %4
  %6 = and i32 %5, 536870911
  store i32 %6, ptr %0, align 4
  %7 = icmp ult i32 %6, %3
  %8 = getelementptr inbounds i8, ptr %0, i64 4
  %9 = load i32, ptr %8, align 4
  %10 = zext i1 %7 to i32
  %11 = add i32 %9, %10
  %12 = lshr i64 %2, 29
  %13 = getelementptr inbounds i8, ptr %0, i64 4
  %14 = trunc i64 %12 to i32
  %15 = add i32 %11, %14
  store i32 %15, ptr %13, align 4
  %16 = and i32 %3, 63
  %.not = icmp eq i32 %16, 0
  br i1 %.not, label %29, label %17

17:                                               ; preds = %._crit_edge
  %18 = sub nuw nsw i32 64, %16
  %19 = zext nneg i32 %18 to i64
  %20 = icmp ugt i64 %19, %2
  %21 = getelementptr inbounds i8, ptr %0, i64 24
  %22 = zext nneg i32 %16 to i64
  %23 = getelementptr inbounds [64 x i8], ptr %21, i64 0, i64 %22
  br i1 %20, label %24, label %25

24:                                               ; preds = %17
  tail call void @llvm.memcpy.p0.p0.i64(ptr nonnull align 1 %23, ptr align 1 %1, i64 %2, i1 false)
  br label %37

25:                                               ; preds = %17
  tail call void @llvm.memcpy.p0.p0.i64(ptr noundef nonnull align 1 dereferenceable(1) %23, ptr noundef nonnull align 1 dereferenceable(1) %1, i64 %19, i1 false)
  %26 = getelementptr inbounds i8, ptr %1, i64 %19
  %27 = sub i64 %2, %19
  %28 = tail call fastcc ptr @body(ptr noundef nonnull %0, ptr noundef nonnull %21, i64 noundef 64)
  br label %29

29:                                               ; preds = %25, %._crit_edge
  %.034 = phi i64 [ %27, %25 ], [ %2, %._crit_edge ]
  %.0 = phi ptr [ %26, %25 ], [ %1, %._crit_edge ]
  %30 = icmp ugt i64 %.034, 63
  br i1 %30, label %31, label %35

31:                                               ; preds = %29
  %32 = and i64 %.034, -64
  %33 = tail call fastcc ptr @body(ptr noundef nonnull %0, ptr noundef %.0, i64 noundef %32)
  %34 = and i64 %.034, 63
  br label %35

35:                                               ; preds = %31, %29
  %.135 = phi i64 [ %34, %31 ], [ %.034, %29 ]
  %.1 = phi ptr [ %33, %31 ], [ %.0, %29 ]
  %36 = getelementptr inbounds i8, ptr %0, i64 24
  tail call void @llvm.memcpy.p0.p0.i64(ptr nonnull align 4 %36, ptr align 1 %.1, i64 %.135, i1 false)
  br label %37

37:                                               ; preds = %35, %24
  ret void
}